target datalayout = "e-m:e-p270:32:32-p271:32:32-p272:64:64-i64:64-i128:128-f80:128-n8:16:32:64-S128"
target triple = "x86_64-pc-linux-gnu"

%struct.prov_cipher_ctx_st = type { [16 x i8], [16 x i8], [16 x i8], ptr, %union.anon, i32, i64, i64, i64, i64, i32, i8, i32, ptr, i32, i64, i32, i64, i32, ptr, ptr, ptr }
%union.anon = type { ptr }
%struct.prov_cipher_hw_chacha_aead_st = type { %struct.prov_cipher_hw_st, ptr, ptr, ptr, ptr }
%struct.prov_cipher_hw_st = type { ptr, ptr, ptr }

@.str = private unnamed_addr constant [72 x i8] c"../openssl/providers/implementations/ciphers/cipher_chacha20_poly1305.c\00", align 1
@__func__.chacha20_poly1305_cipher = private unnamed_addr constant [25 x i8] c"chacha20_poly1305_cipher\00", align 1

; Function Attrs: nounwind uwtable
define internal i32 @chacha20_poly1305_cipher(ptr noundef %0, ptr noundef %1, ptr noundef %2, i64 noundef %3, ptr noundef %4, i64 noundef %5) #0 {
  %7 = alloca i32, align 4
  %8 = alloca ptr, align 8
  %9 = alloca ptr, align 8
  %10 = alloca ptr, align 8
  %11 = alloca i64, align 8
  %12 = alloca ptr, align 8
  %13 = alloca i64, align 8
  %14 = alloca ptr, align 8
  %15 = alloca ptr, align 8
  %16 = alloca i32, align 4
  store ptr %0, ptr %8, align 8, !tbaa !3
  store ptr %1, ptr %9, align 8, !tbaa !22
  store ptr %2, ptr %10, align 8, !tbaa !35
  store i64 %3, ptr %11, align 8, !tbaa !23
  store ptr %4, ptr %12, align 8, !tbaa !22
  store i64 %5, ptr %13, align 8, !tbaa !23
  call void @llvm.lifetime.start.p0(i64 8, ptr %14) #5
  %17 = load ptr, ptr %8, align 8, !tbaa !3
  store ptr %17, ptr %14, align 8, !tbaa !27
  call void @llvm.lifetime.start.p0(i64 8, ptr %15) #5
  %18 = load ptr, ptr %14, align 8, !tbaa !27
  %19 = getelementptr inbounds nuw %struct.prov_cipher_ctx_st, ptr %18, i32 0, i32 19
  %20 = load ptr, ptr %19, align 8, !tbaa !29
  store ptr %20, ptr %15, align 8, !tbaa !30
  %21 = call i32 @ossl_prov_is_running()
  %22 = icmp ne i32 %21, 0
  br i1 %22, label %24, label %23

23:                                               ; preds = %6
  store i32 0, ptr %7, align 4
  store i32 1, ptr %16, align 4
  br label %47

24:                                               ; preds = %6
  %25 = load i64, ptr %13, align 8, !tbaa !23
  %26 = icmp eq i64 %25, 0
  br i1 %26, label %27, label %29

27:                                               ; preds = %24
  %28 = load ptr, ptr %10, align 8, !tbaa !35
  store i64 0, ptr %28, align 8, !tbaa !23
  store i32 1, ptr %7, align 4
  store i32 1, ptr %16, align 4
  br label %47

29:                                               ; preds = %24
  %30 = load i64, ptr %11, align 8, !tbaa !23
  %31 = load i64, ptr %13, align 8, !tbaa !23
  %32 = icmp ult i64 %30, %31
  br i1 %32, label %33, label %34

33:                                               ; preds = %29
  call void @ERR_new()
  call void @ERR_set_debug(ptr noundef @.str, i32 noundef 302, ptr noundef @__func__.chacha20_poly1305_cipher)
  call void (i32, i32, ptr, ...) @ERR_set_error(i32 noundef 57, i32 noundef 106, ptr noundef null)
  store i32 0, ptr %7, align 4
  store i32 1, ptr %16, align 4
  br label %47

34:                                               ; preds = %29
  %35 = load ptr, ptr %15, align 8, !tbaa !30
  %36 = getelementptr inbounds nuw %struct.prov_cipher_hw_chacha_aead_st, ptr %35, i32 0, i32 1
  %37 = load ptr, ptr %36, align 8, !tbaa !37
  %38 = load ptr, ptr %14, align 8, !tbaa !27
  %39 = load ptr, ptr %9, align 8, !tbaa !22
  %40 = load ptr, ptr %10, align 8, !tbaa !35
  %41 = load ptr, ptr %12, align 8, !tbaa !22
  %42 = load i64, ptr %13, align 8, !tbaa !23
  %43 = call i32 %37(ptr noundef %38, ptr noundef %39, ptr noundef %40, ptr noundef %41, i64 noundef %42)
  %44 = icmp ne i32 %43, 0
  br i1 %44, label %46, label %45

45:                                               ; preds = %34
  store i32 0, ptr %7, align 4
  store i32 1, ptr %16, align 4
  br label %47

46:                                               ; preds = %34
  store i32 1, ptr %7, align 4
  store i32 1, ptr %16, align 4
  br label %47

47:                                               ; preds = %46, %45, %33, %27, %23
  call void @llvm.lifetime.end.p0(i64 8, ptr %15) #5
  call void @llvm.lifetime.end.p0(i64 8, ptr %14) #5
  %48 = load i32, ptr %7, align 4
  ret i32 %48
}