; Function Attrs: nounwind uwtable
define internal range(i32 0, 2) i32 @chacha20_poly1305_cipher(ptr noundef %0, ptr noundef %1, ptr noundef %2, i64 noundef %3, ptr noundef %4, i64 noundef %5) #0 {
  %7 = getelementptr inbounds nuw i8, ptr %0, i64 168
  %8 = load ptr, ptr %7, align 8, !tbaa !21
  %9 = tail call i32 @ossl_prov_is_running() #5
  %.not = icmp eq i32 %9, 0
  br i1 %.not, label %20, label %10

10:                                               ; preds = %6
  %11 = icmp eq i64 %5, 0
  br i1 %11, label %12, label %13

12:                                               ; preds = %10
  store i64 0, ptr %2, align 8, !tbaa !25
  br label %20

13:                                               ; preds = %10
  %14 = icmp ult i64 %3, %5
  br i1 %14, label %15, label %16

15:                                               ; preds = %13
  tail call void @ERR_new() #5
  tail call void @ERR_set_debug(ptr noundef nonnull @.str, i32 noundef 302, ptr noundef nonnull @__func__.chacha20_poly1305_cipher) #5
  tail call void (i32, i32, ptr, ...) @ERR_set_error(i32 noundef 57, i32 noundef 106, ptr noundef null) #5
  br label %20

16:                                               ; preds = %13
  %17 = getelementptr inbounds nuw i8, ptr %8, i64 24
  %18 = load ptr, ptr %17, align 8, !tbaa !26
  %19 = tail call i32 %18(ptr noundef nonnull %0, ptr noundef %1, ptr noundef %2, ptr noundef %4, i64 noundef %5) #5
  %.not13 = icmp ne i32 %19, 0
  %. = zext i1 %.not13 to i32
  br label %20

20:                                               ; preds = %16, %6, %15, %12
  %.0 = phi i32 [ 1, %12 ], [ 0, %15 ], [ 0, %6 ], [ %., %16 ]
  ret i32 %.0
}